Certificate:
    Data:
        Version: 3 (0x2)
        Serial Number: 1 (0x1)
    Signature Algorithm: sha256WithRSAEncryption
        Issuer: DC=io, DC=integration-test, C=DE, ST=Utopia, O=DC/OS, OU=Brogrammer Unit, CN=Integration Test Root CA
        Validity
            Not Before: Feb 16 00:31:20 2019 GMT
            Not After : Feb 15 00:31:20 2022 GMT
        Subject: DC=io, DC=integration-test, C=DE, ST=Utopia, O=DC/OS, OU=Brogrammer Unit, CN=Integration Test Root CA
        Subject Public Key Info:
            Public Key Algorithm: rsaEncryption
                Public-Key: (4096 bit)
                Modulus:
                    00:da:36:25:87:61:10:1d:43:0b:b3:6a:2e:f5:6d:
                    b0:1f:62:0b:1c:29:4d:e4:6a:51:a4:da:6c:24:24:
                    4e:8b:dd:23:ca:2f:31:fd:30:41:ed:ed:42:81:98:
                    6f:8b:5a:74:bf:61:2d:e6:c8:8e:08:38:87:0d:af:
                    05:4e:a3:a2:92:0a:f2:0f:3c:3e:df:51:98:5a:9d:
                    32:7b:c6:61:40:fc:45:cc:8f:ca:7a:8e:bf:42:e5:
                    96:a1:1e:69:9c:42:8e:0d:e6:4d:25:12:1e:19:8c:
                    c4:b4:43:5f:5a:25:2b:8f:ec:3e:f2:7a:28:6f:9f:
                    67:bb:97:bf:9d:6f:5e:d0:54:af:6a:82:84:0a:81:
                    3d:83:1a:e6:b5:8e:d5:76:77:13:a4:4a:b6:e5:5d:
                    0c:ad:35:9b:fb:bd:79:d3:82:33:bb:4d:8f:aa:8f:
                    5d:7a:54:9e:d8:0e:f7:70:82:b4:e7:fd:39:2a:2f:
                    f3:5b:f5:c6:75:92:d4:07:1f:db:4f:12:9c:0d:0c:
                    27:03:74:3c:0b:0e:d7:00:7f:5e:24:5f:c5:de:32:
                    d1:af:8d:dc:bf:a2:93:55:de:50:f3:95:8a:b8:89:
                    b6:a5:5a:92:df:79:dc:e5:82:17:fd:bd:a5:1c:c5:
                    ca:e9:c0:c0:2c:7c:b7:f2:74:f9:b5:60:53:ae:f1:
                    df:c4:60:53:4b:c9:e1:8e:43:17:91:7e:d6:27:71:
                    a5:98:af:df:d3:b9:cb:50:19:d3:aa:75:52:44:ce:
                    a0:97:cf:37:01:0b:51:52:e5:2d:b9:b8:c3:69:4e:
                    e9:d0:b2:67:73:fb:4f:68:be:0c:22:9a:2a:6e:b3:
                    4c:79:28:85:c3:6b:32:27:48:49:63:ac:db:e7:99:
                    24:18:f5:98:95:87:0c:1b:0a:96:26:19:ad:88:c6:
                    39:66:fd:38:02:69:63:f4:0d:e6:6a:1e:a1:d0:54:
                    63:96:39:40:bb:7e:d7:89:09:24:74:3c:19:7c:b1:
                    69:a4:e2:13:33:d4:d4:3f:97:29:44:8e:68:85:2e:
                    c4:21:3b:23:70:9d:d3:7c:94:20:38:c4:32:75:44:
                    59:5f:96:3e:66:ab:30:f1:c6:e3:44:a1:34:10:f5:
                    21:17:bb:9f:8f:c8:b0:2b:db:68:1a:1c:28:8c:1e:
                    81:ef:d1:7b:ce:bd:d3:44:81:69:6f:8a:00:5a:cc:
                    e8:6c:b0:b2:f6:6d:9a:71:d2:bd:24:df:30:6c:06:
                    48:5b:51:3a:31:cb:73:79:8d:f2:c4:5b:2c:05:52:
                    2e:f9:a2:88:7a:50:6f:80:be:91:a6:20:5e:a6:2e:
                    df:1c:c8:a8:5e:28:49:66:39:4e:c5:67:cb:75:4e:
                    8d:f1:a7
                Exponent: 65537 (0x10001)
        X509v3 extensions:
            X509v3 Subject Key Identifier: 
                B6:18:57:45:4B:60:F8:3C:AA:B9:41:52:81:D8:10:41:13:76:FD:8D
            X509v3 Authority Key Identifier: 
                keyid:B6:18:57:45:4B:60:F8:3C:AA:B9:41:52:81:D8:10:41:13:76:FD:8D

            X509v3 Basic Constraints: critical
                CA:TRUE
            X509v3 Key Usage: critical
                Digital Signature, Certificate Sign, CRL Sign
    Signature Algorithm: sha256WithRSAEncryption
         1f:70:70:17:9c:09:ec:53:56:7e:7f:24:ad:e6:65:f0:84:4c:
         c5:15:ac:0f:15:4a:fa:71:35:8f:5a:a7:d8:38:39:70:fa:08:
         e0:9d:0a:17:1e:35:9e:4f:51:dc:52:ba:f6:b1:53:94:44:2c:
         1b:0f:ad:71:80:c1:4c:ca:bb:ca:19:73:eb:35:33:67:ab:ce:
         8e:c5:91:84:1e:04:c4:c7:5c:80:d6:96:6c:9d:84:52:67:47:
         b4:d1:20:a9:90:9e:f2:eb:89:dd:90:7c:b6:60:26:58:21:04:
         32:02:8f:16:ac:ea:a6:bd:1a:3f:b5:7b:13:98:e2:b1:85:96:
         a9:09:94:09:31:cb:2c:08:46:c5:d5:c2:85:cd:dc:8f:c7:a1:
         3e:37:3e:77:95:18:33:13:35:90:6a:37:85:ce:e4:2f:03:84:
         f3:41:95:6e:b6:99:11:7a:71:43:c7:c5:35:17:71:ea:ee:c7:
         4e:aa:99:89:46:ff:d5:bb:8a:d2:27:ff:10:18:53:b9:ce:39:
         cf:5b:17:f2:29:86:37:45:bf:75:89:60:5f:89:f4:ed:8d:ed:
         69:71:1a:63:f9:9f:c7:e4:b0:33:8f:f2:db:68:66:19:d5:49:
         fc:c1:71:0c:b5:a5:20:96:8e:c4:46:49:d3:ab:82:87:b4:b0:
         a6:bc:8d:36:1b:9c:62:d3:c5:37:90:72:ed:a2:13:a7:5a:3c:
         3f:79:fb:b5:d6:c9:e9:93:26:dd:87:7d:cd:76:dc:49:ae:1b:
         22:4f:71:8a:ba:c9:85:de:1e:95:29:f4:bf:a6:43:33:28:7d:
         5d:bc:38:4e:13:50:7e:45:62:1f:c6:06:a4:55:64:ff:7b:3e:
         71:74:3c:88:85:29:c9:39:79:eb:61:11:b3:68:d7:0b:77:b3:
         04:0c:52:00:19:23:ba:a2:e9:a6:4d:df:cd:c3:f7:21:02:e0:
         35:a9:3e:7f:12:a8:59:fa:52:bf:fe:f1:29:c9:15:cd:81:76:
         5d:95:c2:f7:73:a7:66:7b:5f:54:6f:2c:9d:ce:a0:23:a8:fe:
         19:85:9e:08:06:00:ee:b6:4e:29:ca:31:7e:9f:79:0b:10:4b:
         45:a7:bf:0f:4c:92:bc:8e:aa:c2:b7:7b:6d:fd:c7:6d:49:c6:
         fd:91:b3:32:fa:3a:98:a8:19:b4:80:7d:fb:14:77:29:40:0d:
         21:bf:86:3c:61:bb:1f:21:f1:14:d4:8e:50:36:3d:03:03:75:
         32:b6:14:7d:83:1b:2d:08:7c:73:bf:86:18:4e:2d:2a:77:ae:
         4d:7a:11:fa:49:6f:b3:83:4e:0c:d9:c7:cc:33:f2:4d:c1:96:
         ac:5d:ca:af:cf:a6:1f:24
-----BEGIN CERTIFICATE-----
MIIGIjCCBAqgAwIBAgIBATANBgkqhkiG9w0BAQsFADCBoTESMBAGCgmSJomT8ixk
ARkWAmlvMSAwHgYKCZImiZPyLGQBGRYQaW50ZWdyYXRpb24tdGVzdDELMAkGA1UE
BhMCREUxDzANBgNVBAgMBlV0b3BpYTEOMAwGA1UECgwFREMvT1MxGDAWBgNVBAsM
D0Jyb2dyYW1tZXIgVW5pdDEhMB8GA1UEAwwYSW50ZWdyYXRpb24gVGVzdCBSb290
IENBMB4XDTE5MDIxNjAwMzEyMFoXDTIyMDIxNTAwMzEyMFowgaExEjAQBgoJkiaJ
k/IsZAEZFgJpbzEgMB4GCgmSJomT8ixkARkWEGludGVncmF0aW9uLXRlc3QxCzAJ
BgNVBAYTAkRFMQ8wDQYDVQQIDAZVdG9waWExDjAMBgNVBAoMBURDL09TMRgwFgYD
VQQLDA9Ccm9ncmFtbWVyIFVuaXQxITAfBgNVBAMMGEludGVncmF0aW9uIFRlc3Qg
Um9vdCBDQTCCAiIwDQYJKoZIhvcNAQEBBQADggIPADCCAgoCggIBANo2JYdhEB1D
C7NqLvVtsB9iCxwpTeRqUaTabCQkTovdI8ovMf0wQe3tQoGYb4tadL9hLebIjgg4
hw2vBU6jopIK8g88Pt9RmFqdMnvGYUD8RcyPynqOv0LllqEeaZxCjg3mTSUSHhmM
xLRDX1olK4/sPvJ6KG+fZ7uXv51vXtBUr2qChAqBPYMa5rWO1XZ3E6RKtuVdDK01
m/u9edOCM7tNj6qPXXpUntgO93CCtOf9OSov81v1xnWS1Acf208SnA0MJwN0PAsO
1wB/XiRfxd4y0a+N3L+ik1XeUPOViriJtqVakt953OWCF/29pRzFyunAwCx8t/J0
+bVgU67x38RgU0vJ4Y5DF5F+1idxpZiv39O5y1AZ06p1UkTOoJfPNwELUVLlLbm4
w2lO6dCyZ3P7T2i+DCKaKm6zTHkohcNrMidISWOs2+eZJBj1mJWHDBsKliYZrYjG
OWb9OAJpY/QN5moeodBUY5Y5QLt+14kJJHQ8GXyxaaTiEzPU1D+XKUSOaIUuxCE7
I3Cd03yUIDjEMnVEWV+WPmarMPHG40ShNBD1IRe7n4/IsCvbaBocKIwege/Re869
00SBaW+KAFrM6GywsvZtmnHSvSTfMGwGSFtROjHLc3mN8sRbLAVSLvmiiHpQb4C+
kaYgXqYu3xzIqF4oSWY5TsVny3VOjfGnAgMBAAGjYzBhMB0GA1UdDgQWBBS2GFdF
S2D4PKq5QVKB2BBBE3b9jTAfBgNVHSMEGDAWgBS2GFdFS2D4PKq5QVKB2BBBE3b9
jTAPBgNVHRMBAf8EBTADAQH/MA4GA1UdDwEB/wQEAwIBhjANBgkqhkiG9w0BAQsF
AAOCAgEAH3BwF5wJ7FNWfn8kreZl8IRMxRWsDxVK+nE1j1qn2Dg5cPoI4J0KFx41
nk9R3FK69rFTlEQsGw+tcYDBTMq7yhlz6zUzZ6vOjsWRhB4ExMdcgNaWbJ2EUmdH
tNEgqZCe8uuJ3ZB8tmAmWCEEMgKPFqzqpr0aP7V7E5jisYWWqQmUCTHLLAhGxdXC
hc3cj8ehPjc+d5UYMxM1kGo3hc7kLwOE80GVbraZEXpxQ8fFNRdx6u7HTqqZiUb/
1buK0if/EBhTuc45z1sX8imGN0W/dYlgX4n07Y3taXEaY/mfx+SwM4/y22hmGdVJ
/MFxDLWlIJaOxEZJ06uCh7SwpryNNhucYtPFN5By7aITp1o8P3n7tdbJ6ZMm3Yd9
zXbcSa4bIk9xirrJhd4elSn0v6ZDMyh9Xbw4ThNQfkViH8YGpFVk/3s+cXQ8iIUp
yTl562ERs2jXC3ezBAxSABkjuqLppk3fzcP3IQLgNak+fxKoWfpSv/7xKckVzYF2
XZXC93OnZntfVG8snc6gI6j+GYWeCAYA7rZOKcoxfp95CxBLRae/D0ySvI6qwrd7
bf3HbUnG/ZGzMvo6mKgZtIB9+xR3KUANIb+GPGG7HyHxFNSOUDY9AwN1MrYUfYMb
LQh8c7+GGE4tKneuTXoR+klvs4NODNnHzDPyTcGWrF3Kr8+mHyQ=
-----END CERTIFICATE-----
